target datalayout = "e-m:e-p270:32:32-p271:32:32-p272:64:64-i64:64-i128:128-f80:128-n8:16:32:64-S128"
target triple = "x86_64-pc-linux-gnu"

%struct.gguf_context = type { i32, %"class.std::vector", %"class.std::vector.17", i64, i64, i64, ptr }
%"class.std::vector" = type { %"struct.std::_Vector_base" }
%"struct.std::_Vector_base" = type { %"struct.std::_Vector_base<gguf_kv, std::allocator<gguf_kv>>::_Vector_impl" }
%"struct.std::_Vector_base<gguf_kv, std::allocator<gguf_kv>>::_Vector_impl" = type { %"struct.std::_Vector_base<gguf_kv, std::allocator<gguf_kv>>::_Vector_impl_data" }
%"struct.std::_Vector_base<gguf_kv, std::allocator<gguf_kv>>::_Vector_impl_data" = type { ptr, ptr, ptr }
%"class.std::vector.17" = type { %"struct.std::_Vector_base.18" }
%"struct.std::_Vector_base.18" = type { %"struct.std::_Vector_base<gguf_tensor_info, std::allocator<gguf_tensor_info>>::_Vector_impl" }
%"struct.std::_Vector_base<gguf_tensor_info, std::allocator<gguf_tensor_info>>::_Vector_impl" = type { %"struct.std::_Vector_base<gguf_tensor_info, std::allocator<gguf_tensor_info>>::_Vector_impl_data" }
%"struct.std::_Vector_base<gguf_tensor_info, std::allocator<gguf_tensor_info>>::_Vector_impl_data" = type { ptr, ptr, ptr }
%struct.gguf_tensor_info = type { %struct.ggml_tensor, i64 }
%struct.ggml_tensor = type { i32, ptr, [4 x i64], [4 x i64], i32, [16 x i32], i32, [10 x ptr], ptr, i64, ptr, [64 x i8], ptr, [8 x i8] }

@.str.28 = private unnamed_addr constant [115 x i8] c"generated/home/dtcxzyw/WorkSpace/Projects/compilers/llvm-opt-benchmark/bench/llama.cpp/llama.cpp/ggml/src/gguf.cpp\00", align 1
@.str.29 = private unnamed_addr constant [23 x i8] c"GGML_ASSERT(%s) failed\00", align 1
@.str.59 = private unnamed_addr constant [54 x i8] c"tensor_id >= 0 && tensor_id < gguf_get_n_tensors(ctx)\00", align 1
@.str.63 = private unnamed_addr constant [21 x i8] c"tensor not found: %s\00", align 1
@.str.64 = private unnamed_addr constant [92 x i8] c"tensor->ne[0] % blck_size == 0 && \22tensor row size not divisible by block size of new type\22\00", align 1

; Function Attrs: mustprogress nounwind uwtable
define linkonce_odr noundef nonnull align 8 dereferenceable(344) ptr @_ZNKSt6vectorI16gguf_tensor_infoSaIS0_EEixEm(ptr noundef nonnull align 8 dereferenceable(24) %0, i64 noundef %1) #3 comdat align 2 {
  %3 = alloca ptr, align 8
  %4 = alloca i64, align 8
  store ptr %0, ptr %3, align 8, !tbaa !127
  store i64 %1, ptr %4, align 8, !tbaa !69
  %5 = load ptr, ptr %3, align 8
  %6 = getelementptr inbounds nuw %"struct.std::_Vector_base.18", ptr %5, i32 0, i32 0
  %7 = getelementptr inbounds nuw %"struct.std::_Vector_base<gguf_tensor_info, std::allocator<gguf_tensor_info>>::_Vector_impl_data", ptr %6, i32 0, i32 0
  %8 = load ptr, ptr %7, align 8, !tbaa !129
  %9 = load i64, ptr %4, align 8, !tbaa !69
  %10 = getelementptr inbounds nuw %struct.gguf_tensor_info, ptr %8, i64 %9
  ret ptr %10
}

; Function Attrs: mustprogress nounwind uwtable
define linkonce_odr noundef i64 @_ZNKSt6vectorI16gguf_tensor_infoSaIS0_EE4sizeEv(ptr noundef nonnull align 8 dereferenceable(24) %0) #3 comdat align 2 {
  %2 = alloca ptr, align 8
  store ptr %0, ptr %2, align 8, !tbaa !127
  %3 = load ptr, ptr %2, align 8
  %4 = getelementptr inbounds nuw %"struct.std::_Vector_base.18", ptr %3, i32 0, i32 0
  %5 = getelementptr inbounds nuw %"struct.std::_Vector_base<gguf_tensor_info, std::allocator<gguf_tensor_info>>::_Vector_impl_data", ptr %4, i32 0, i32 1
  %6 = load ptr, ptr %5, align 8, !tbaa !131
  %7 = getelementptr inbounds nuw %"struct.std::_Vector_base.18", ptr %3, i32 0, i32 0
  %8 = getelementptr inbounds nuw %"struct.std::_Vector_base<gguf_tensor_info, std::allocator<gguf_tensor_info>>::_Vector_impl_data", ptr %7, i32 0, i32 0
  %9 = load ptr, ptr %8, align 8, !tbaa !129
  %10 = ptrtoint ptr %6 to i64
  %11 = ptrtoint ptr %9 to i64
  %12 = sub i64 %10, %11
  %13 = sdiv exact i64 %12, 344
  ret i64 %13
}

; Function Attrs: mustprogress uwtable
define ptr @gguf_get_tensor_name(ptr noundef %0, i64 noundef %1) #4 {
  %3 = alloca ptr, align 8
  %4 = alloca i64, align 8
  store ptr %0, ptr %3, align 8, !tbaa !41
  store i64 %1, ptr %4, align 8, !tbaa !69
  %5 = load i64, ptr %4, align 8, !tbaa !69
  %6 = icmp sge i64 %5, 0
  br i1 %6, label %7, label %12

7:                                                ; preds = %2
  %8 = load i64, ptr %4, align 8, !tbaa !69
  %9 = load ptr, ptr %3, align 8, !tbaa !41
  %10 = call i64 @gguf_get_n_tensors(ptr noundef %9)
  %11 = icmp slt i64 %8, %10
  br i1 %11, label %13, label %12

12:                                               ; preds = %7, %2
  call void (ptr, i32, ptr, ...) @ggml_abort(ptr noundef @.str.28, i32 noundef 907, ptr noundef @.str.29, ptr noundef @.str.59) #21
  unreachable

13:                                               ; preds = %7
  %14 = load ptr, ptr %3, align 8, !tbaa !41
  %15 = getelementptr inbounds nuw %struct.gguf_context, ptr %14, i32 0, i32 2
  %16 = load i64, ptr %4, align 8, !tbaa !69
  %17 = call noundef nonnull align 8 dereferenceable(344) ptr @_ZNKSt6vectorI16gguf_tensor_infoSaIS0_EEixEm(ptr noundef nonnull align 8 dereferenceable(24) %15, i64 noundef %16) #5
  %18 = getelementptr inbounds nuw %struct.gguf_tensor_info, ptr %17, i32 0, i32 0
  %19 = getelementptr inbounds nuw %struct.ggml_tensor, ptr %18, i32 0, i32 11
  %20 = getelementptr inbounds [64 x i8], ptr %19, i64 0, i64 0
  ret ptr %20
}

; Function Attrs: mustprogress nounwind uwtable
define i64 @gguf_get_n_tensors(ptr noundef %0) #3 {
  %2 = alloca ptr, align 8
  store ptr %0, ptr %2, align 8, !tbaa !41
  %3 = load ptr, ptr %2, align 8, !tbaa !41
  %4 = getelementptr inbounds nuw %struct.gguf_context, ptr %3, i32 0, i32 2
  %5 = call noundef i64 @_ZNKSt6vectorI16gguf_tensor_infoSaIS0_EE4sizeEv(ptr noundef nonnull align 8 dereferenceable(24) %4) #5
  ret i64 %5
}

; Function Attrs: mustprogress nounwind uwtable
define linkonce_odr noundef nonnull align 8 dereferenceable(344) ptr @_ZNSt6vectorI16gguf_tensor_infoSaIS0_EEixEm(ptr noundef nonnull align 8 dereferenceable(24) %0, i64 noundef %1) #3 comdat align 2 {
  %3 = alloca ptr, align 8
  %4 = alloca i64, align 8
  store ptr %0, ptr %3, align 8, !tbaa !127
  store i64 %1, ptr %4, align 8, !tbaa !69
  %5 = load ptr, ptr %3, align 8
  %6 = getelementptr inbounds nuw %"struct.std::_Vector_base.18", ptr %5, i32 0, i32 0
  %7 = getelementptr inbounds nuw %"struct.std::_Vector_base<gguf_tensor_info, std::allocator<gguf_tensor_info>>::_Vector_impl_data", ptr %6, i32 0, i32 0
  %8 = load ptr, ptr %7, align 8, !tbaa !129
  %9 = load i64, ptr %4, align 8, !tbaa !69
  %10 = getelementptr inbounds nuw %struct.gguf_tensor_info, ptr %8, i64 %9
  ret ptr %10
}

; Function Attrs: mustprogress uwtable
define i64 @gguf_find_tensor(ptr noundef %0, ptr noundef %1) #4 {
  %3 = alloca ptr, align 8
  %4 = alloca ptr, align 8
  %5 = alloca i64, align 8
  %6 = alloca i64, align 8
  %7 = alloca i64, align 8
  %8 = alloca i32, align 4
  store ptr %0, ptr %3, align 8, !tbaa !41
  store ptr %1, ptr %4, align 8, !tbaa !122
  call void @llvm.lifetime.start.p0(i64 8, ptr %5) #5
  store i64 -1, ptr %5, align 8, !tbaa !69
  call void @llvm.lifetime.start.p0(i64 8, ptr %6) #5
  %9 = load ptr, ptr %3, align 8, !tbaa !41
  %10 = call i64 @gguf_get_n_tensors(ptr noundef %9)
  store i64 %10, ptr %6, align 8, !tbaa !69
  call void @llvm.lifetime.start.p0(i64 8, ptr %7) #5
  store i64 0, ptr %7, align 8, !tbaa !69
  br label %11

11:                                               ; preds = %26, %2
  %12 = load i64, ptr %7, align 8, !tbaa !69
  %13 = load i64, ptr %6, align 8, !tbaa !69
  %14 = icmp slt i64 %12, %13
  br i1 %14, label %16, label %15

15:                                               ; preds = %11
  store i32 2, ptr %8, align 4
  br label %29

16:                                               ; preds = %11
  %17 = load ptr, ptr %4, align 8, !tbaa !122
  %18 = load ptr, ptr %3, align 8, !tbaa !41
  %19 = load i64, ptr %7, align 8, !tbaa !69
  %20 = call ptr @gguf_get_tensor_name(ptr noundef %18, i64 noundef %19)
  %21 = call i32 @strcmp(ptr noundef %17, ptr noundef %20) #22
  %22 = icmp eq i32 %21, 0
  br i1 %22, label %23, label %25

23:                                               ; preds = %16
  %24 = load i64, ptr %7, align 8, !tbaa !69
  store i64 %24, ptr %5, align 8, !tbaa !69
  store i32 2, ptr %8, align 4
  br label %29

25:                                               ; preds = %16
  br label %26

26:                                               ; preds = %25
  %27 = load i64, ptr %7, align 8, !tbaa !69
  %28 = add nsw i64 %27, 1
  store i64 %28, ptr %7, align 8, !tbaa !69
  br label %11, !llvm.loop !167

29:                                               ; preds = %23, %15
  call void @llvm.lifetime.end.p0(i64 8, ptr %7) #5
  br label %30

30:                                               ; preds = %29
  %31 = load i64, ptr %5, align 8, !tbaa !69
  store i32 1, ptr %8, align 4
  call void @llvm.lifetime.end.p0(i64 8, ptr %6) #5
  call void @llvm.lifetime.end.p0(i64 8, ptr %5) #5
  ret i64 %31
}

; Function Attrs: mustprogress uwtable
define void @gguf_set_tensor_type(ptr noundef %0, ptr noundef %1, i32 noundef %2) #4 {
  %4 = alloca ptr, align 8
  %5 = alloca ptr, align 8
  %6 = alloca i32, align 4
  %7 = alloca i64, align 8
  %8 = alloca ptr, align 8
  %9 = alloca i64, align 8
  %10 = alloca i64, align 8
  %11 = alloca i32, align 4
  %12 = alloca i64, align 8
  %13 = alloca i64, align 8
  store ptr %0, ptr %4, align 8, !tbaa !41
  store ptr %1, ptr %5, align 8, !tbaa !122
  store i32 %2, ptr %6, align 4, !tbaa !130
  call void @llvm.lifetime.start.p0(i64 8, ptr %7) #5
  %14 = load ptr, ptr %4, align 8, !tbaa !41
  %15 = load ptr, ptr %5, align 8, !tbaa !122
  %16 = call i64 @gguf_find_tensor(ptr noundef %14, ptr noundef %15)
  store i64 %16, ptr %7, align 8, !tbaa !69
  %17 = load i64, ptr %7, align 8, !tbaa !69
  %18 = icmp slt i64 %17, 0
  br i1 %18, label %19, label %21

19:                                               ; preds = %3
  %20 = load ptr, ptr %5, align 8, !tbaa !122
  call void (ptr, i32, ptr, ...) @ggml_abort(ptr noundef @.str.28, i32 noundef 1109, ptr noundef @.str.63, ptr noundef %20) #21
  unreachable

21:                                               ; preds = %3
  call void @llvm.lifetime.start.p0(i64 8, ptr %8) #5
  %22 = load ptr, ptr %4, align 8, !tbaa !41
  %23 = getelementptr inbounds nuw %struct.gguf_context, ptr %22, i32 0, i32 2
  %24 = load i64, ptr %7, align 8, !tbaa !69
  %25 = call noundef nonnull align 8 dereferenceable(344) ptr @_ZNSt6vectorI16gguf_tensor_infoSaIS0_EEixEm(ptr noundef nonnull align 8 dereferenceable(24) %23, i64 noundef %24) #5
  %26 = getelementptr inbounds nuw %struct.gguf_tensor_info, ptr %25, i32 0, i32 0
  store ptr %26, ptr %8, align 8, !tbaa !98
  call void @llvm.lifetime.start.p0(i64 8, ptr %9) #5
  %27 = load i32, ptr %6, align 4, !tbaa !130
  %28 = call i64 @ggml_type_size(i32 noundef %27)
  store i64 %28, ptr %9, align 8, !tbaa !69
  call void @llvm.lifetime.start.p0(i64 8, ptr %10) #5
  %29 = load i32, ptr %6, align 4, !tbaa !130
  %30 = call i64 @ggml_blck_size(i32 noundef %29)
  store i64 %30, ptr %10, align 8, !tbaa !69
  %31 = load i32, ptr %6, align 4, !tbaa !130
  %32 = load ptr, ptr %8, align 8, !tbaa !98
  %33 = getelementptr inbounds nuw %struct.ggml_tensor, ptr %32, i32 0, i32 0
  store i32 %31, ptr %33, align 8, !tbaa !206
  %34 = load ptr, ptr %8, align 8, !tbaa !98
  %35 = getelementptr inbounds nuw %struct.ggml_tensor, ptr %34, i32 0, i32 2
  %36 = getelementptr inbounds [4 x i64], ptr %35, i64 0, i64 0
  %37 = load i64, ptr %36, align 8, !tbaa !69
  %38 = load i64, ptr %10, align 8, !tbaa !69
  %39 = srem i64 %37, %38
  %40 = icmp eq i64 %39, 0
  br i1 %40, label %42, label %41

41:                                               ; preds = %21
  call void (ptr, i32, ptr, ...) @ggml_abort(ptr noundef @.str.28, i32 noundef 1116, ptr noundef @.str.29, ptr noundef @.str.64) #21
  unreachable

42:                                               ; preds = %21
  %43 = load i64, ptr %9, align 8, !tbaa !69
  %44 = load ptr, ptr %8, align 8, !tbaa !98
  %45 = getelementptr inbounds nuw %struct.ggml_tensor, ptr %44, i32 0, i32 3
  %46 = getelementptr inbounds [4 x i64], ptr %45, i64 0, i64 0
  store i64 %43, ptr %46, align 8, !tbaa !69
  %47 = load ptr, ptr %8, align 8, !tbaa !98
  %48 = getelementptr inbounds nuw %struct.ggml_tensor, ptr %47, i32 0, i32 3
  %49 = getelementptr inbounds [4 x i64], ptr %48, i64 0, i64 0
  %50 = load i64, ptr %49, align 8, !tbaa !69
  %51 = load ptr, ptr %8, align 8, !tbaa !98
  %52 = getelementptr inbounds nuw %struct.ggml_tensor, ptr %51, i32 0, i32 2
  %53 = getelementptr inbounds [4 x i64], ptr %52, i64 0, i64 0
  %54 = load i64, ptr %53, align 8, !tbaa !69
  %55 = load i64, ptr %10, align 8, !tbaa !69
  %56 = sdiv i64 %54, %55
  %57 = mul i64 %50, %56
  %58 = load ptr, ptr %8, align 8, !tbaa !98
  %59 = getelementptr inbounds nuw %struct.ggml_tensor, ptr %58, i32 0, i32 3
  %60 = getelementptr inbounds [4 x i64], ptr %59, i64 0, i64 1
  store i64 %57, ptr %60, align 8, !tbaa !69
  call void @llvm.lifetime.start.p0(i64 4, ptr %11) #5
  store i32 2, ptr %11, align 4, !tbaa !66
  br label %61

61:                                               ; preds = %86, %42
  %62 = load i32, ptr %11, align 4, !tbaa !66
  %63 = icmp slt i32 %62, 4
  br i1 %63, label %65, label %64

64:                                               ; preds = %61
  call void @llvm.lifetime.end.p0(i64 4, ptr %11) #5
  br label %89

65:                                               ; preds = %61
  %66 = load ptr, ptr %8, align 8, !tbaa !98
  %67 = getelementptr inbounds nuw %struct.ggml_tensor, ptr %66, i32 0, i32 3
  %68 = load i32, ptr %11, align 4, !tbaa !66
  %69 = sub nsw i32 %68, 1
  %70 = sext i32 %69 to i64
  %71 = getelementptr inbounds [4 x i64], ptr %67, i64 0, i64 %70
  %72 = load i64, ptr %71, align 8, !tbaa !69
  %73 = load ptr, ptr %8, align 8, !tbaa !98
  %74 = getelementptr inbounds nuw %struct.ggml_tensor, ptr %73, i32 0, i32 2
  %75 = load i32, ptr %11, align 4, !tbaa !66
  %76 = sub nsw i32 %75, 1
  %77 = sext i32 %76 to i64
  %78 = getelementptr inbounds [4 x i64], ptr %74, i64 0, i64 %77
  %79 = load i64, ptr %78, align 8, !tbaa !69
  %80 = mul i64 %72, %79
  %81 = load ptr, ptr %8, align 8, !tbaa !98
  %82 = getelementptr inbounds nuw %struct.ggml_tensor, ptr %81, i32 0, i32 3
  %83 = load i32, ptr %11, align 4, !tbaa !66
  %84 = sext i32 %83 to i64
  %85 = getelementptr inbounds [4 x i64], ptr %82, i64 0, i64 %84
  store i64 %80, ptr %85, align 8, !tbaa !69
  br label %86

86:                                               ; preds = %65
  %87 = load i32, ptr %11, align 4, !tbaa !66
  %88 = add nsw i32 %87, 1
  store i32 %88, ptr %11, align 4, !tbaa !66
  br label %61, !llvm.loop !207

89:                                               ; preds = %64
  call void @llvm.lifetime.start.p0(i64 8, ptr %12) #5
  %90 = load ptr, ptr %4, align 8, !tbaa !41
  %91 = call i64 @gguf_get_n_tensors(ptr noundef %90)
  store i64 %91, ptr %12, align 8, !tbaa !69
  call void @llvm.lifetime.start.p0(i64 8, ptr %13) #5
  %92 = load i64, ptr %7, align 8, !tbaa !69
  %93 = add nsw i64 %92, 1
  store i64 %93, ptr %13, align 8, !tbaa !69
  br label %94

94:                                               ; preds = %131, %89
  %95 = load i64, ptr %13, align 8, !tbaa !69
  %96 = load i64, ptr %12, align 8, !tbaa !69
  %97 = icmp slt i64 %95, %96
  br i1 %97, label %99, label %98

98:                                               ; preds = %94
  call void @llvm.lifetime.end.p0(i64 8, ptr %13) #5
  br label %134

99:                                               ; preds = %94
  %100 = load ptr, ptr %4, align 8, !tbaa !41
  %101 = getelementptr inbounds nuw %struct.gguf_context, ptr %100, i32 0, i32 2
  %102 = load i64, ptr %13, align 8, !tbaa !69
  %103 = sub nsw i64 %102, 1
  %104 = call noundef nonnull align 8 dereferenceable(344) ptr @_ZNSt6vectorI16gguf_tensor_infoSaIS0_EEixEm(ptr noundef nonnull align 8 dereferenceable(24) %101, i64 noundef %103) #5
  %105 = getelementptr inbounds nuw %struct.gguf_tensor_info, ptr %104, i32 0, i32 1
  %106 = load i64, ptr %105, align 8, !tbaa !84
  %107 = load ptr, ptr %4, align 8, !tbaa !41
  %108 = getelementptr inbounds nuw %struct.gguf_context, ptr %107, i32 0, i32 2
  %109 = load i64, ptr %13, align 8, !tbaa !69
  %110 = sub nsw i64 %109, 1
  %111 = call noundef nonnull align 8 dereferenceable(344) ptr @_ZNSt6vectorI16gguf_tensor_infoSaIS0_EEixEm(ptr noundef nonnull align 8 dereferenceable(24) %108, i64 noundef %110) #5
  %112 = getelementptr inbounds nuw %struct.gguf_tensor_info, ptr %111, i32 0, i32 0
  %113 = call i64 @ggml_nbytes(ptr noundef %112)
  %114 = load ptr, ptr %4, align 8, !tbaa !41
  %115 = getelementptr inbounds nuw %struct.gguf_context, ptr %114, i32 0, i32 3
  %116 = load i64, ptr %115, align 8, !tbaa !56
  %117 = add i64 %113, %116
  %118 = sub i64 %117, 1
  %119 = load ptr, ptr %4, align 8, !tbaa !41
  %120 = getelementptr inbounds nuw %struct.gguf_context, ptr %119, i32 0, i32 3
  %121 = load i64, ptr %120, align 8, !tbaa !56
  %122 = sub i64 %121, 1
  %123 = xor i64 %122, -1
  %124 = and i64 %118, %123
  %125 = add i64 %106, %124
  %126 = load ptr, ptr %4, align 8, !tbaa !41
  %127 = getelementptr inbounds nuw %struct.gguf_context, ptr %126, i32 0, i32 2
  %128 = load i64, ptr %13, align 8, !tbaa !69
  %129 = call noundef nonnull align 8 dereferenceable(344) ptr @_ZNSt6vectorI16gguf_tensor_infoSaIS0_EEixEm(ptr noundef nonnull align 8 dereferenceable(24) %127, i64 noundef %128) #5
  %130 = getelementptr inbounds nuw %struct.gguf_tensor_info, ptr %129, i32 0, i32 1
  store i64 %125, ptr %130, align 8, !tbaa !84
  br label %131

131:                                              ; preds = %99
  %132 = load i64, ptr %13, align 8, !tbaa !69
  %133 = add nsw i64 %132, 1
  store i64 %133, ptr %13, align 8, !tbaa !69
  br label %94, !llvm.loop !208

134:                                              ; preds = %98
  call void @llvm.lifetime.end.p0(i64 8, ptr %12) #5
  call void @llvm.lifetime.end.p0(i64 8, ptr %10) #5
  call void @llvm.lifetime.end.p0(i64 8, ptr %9) #5
  call void @llvm.lifetime.end.p0(i64 8, ptr %8) #5
  call void @llvm.lifetime.end.p0(i64 8, ptr %7) #5
  ret void
}