; Function Attrs: mustprogress uwtable
define void @gguf_set_tensor_type(ptr noundef readonly captures(none) %0, ptr noundef %1, i32 noundef %2) local_unnamed_addr #2 {
  %4 = getelementptr inbounds nuw i8, ptr %0, i64 32
  %5 = getelementptr inbounds nuw i8, ptr %0, i64 40
  %6 = load ptr, ptr %5, align 8, !tbaa !75
  %7 = load ptr, ptr %4, align 8, !tbaa !46
  %8 = ptrtoint ptr %6 to i64
  %9 = ptrtoint ptr %7 to i64
  %10 = sub i64 %8, %9
  %11 = icmp sgt i64 %10, 0
  br i1 %11, label %gguf_get_tensor_name.exit.preheader.i, label %.loopexit

gguf_get_tensor_name.exit.preheader.i:            ; preds = %3
  %12 = udiv exact i64 %10, 344
  %13 = tail call i64 @llvm.umax.i64(i64 %12, i64 1)
  br label %gguf_get_tensor_name.exit.i

gguf_get_tensor_name.exit.i:                      ; preds = %17, %gguf_get_tensor_name.exit.preheader.i
  %.09.i = phi i64 [ %18, %17 ], [ 0, %gguf_get_tensor_name.exit.preheader.i ]
  %14 = getelementptr inbounds nuw %struct.gguf_tensor_info, ptr %7, i64 %.09.i, i32 0, i32 11
  %15 = tail call i32 @strcmp(ptr noundef nonnull readonly dereferenceable(1) %1, ptr noundef nonnull dereferenceable(1) %14) #27
  %16 = icmp eq i32 %15, 0
  br i1 %16, label %gguf_find_tensor.exit, label %17

17:                                               ; preds = %gguf_get_tensor_name.exit.i
  %18 = add nuw nsw i64 %.09.i, 1
  %exitcond.not.i = icmp eq i64 %18, %13
  br i1 %exitcond.not.i, label %.loopexit, label %gguf_get_tensor_name.exit.i, !llvm.loop !180

.loopexit:                                        ; preds = %17, %3
  tail call void (ptr, i32, ptr, ...) @ggml_abort(ptr noundef nonnull @.str.28, i32 noundef 1109, ptr noundef nonnull @.str.63, ptr noundef %1) #33
  unreachable

gguf_find_tensor.exit:                            ; preds = %gguf_get_tensor_name.exit.i
  %19 = getelementptr inbounds nuw %struct.gguf_tensor_info, ptr %7, i64 %.09.i
  %20 = tail call i64 @ggml_type_size(i32 noundef %2)
  %21 = tail call i64 @ggml_blck_size(i32 noundef %2)
  store i32 %2, ptr %19, align 8, !tbaa !189
  %22 = getelementptr inbounds nuw i8, ptr %19, i64 16
  %23 = load i64, ptr %22, align 8, !tbaa !53
  %24 = srem i64 %23, %21
  %25 = sdiv i64 %23, %21
  %26 = icmp eq i64 %24, 0
  br i1 %26, label %28, label %27

27:                                               ; preds = %gguf_find_tensor.exit
  tail call void (ptr, i32, ptr, ...) @ggml_abort(ptr noundef nonnull @.str.28, i32 noundef 1116, ptr noundef nonnull @.str.29, ptr noundef nonnull @.str.64) #33
  unreachable

28:                                               ; preds = %gguf_find_tensor.exit
  %29 = getelementptr inbounds nuw i8, ptr %19, i64 48
  store i64 %20, ptr %29, align 8, !tbaa !53
  %30 = mul i64 %25, %20
  %31 = getelementptr inbounds nuw i8, ptr %19, i64 56
  store i64 %30, ptr %31, align 8, !tbaa !53
  br label %41

32:                                               ; preds = %41
  %33 = load ptr, ptr %5, align 8, !tbaa !75
  %34 = load ptr, ptr %4, align 8, !tbaa !46
  %35 = ptrtoint ptr %33 to i64
  %36 = ptrtoint ptr %34 to i64
  %37 = sub i64 %35, %36
  %38 = sdiv exact i64 %37, 344
  %.043 = add nuw nsw i64 %.09.i, 1
  %39 = icmp slt i64 %.043, %38
  br i1 %39, label %.lr.ph, label %._crit_edge

.lr.ph:                                           ; preds = %32
  %40 = getelementptr inbounds nuw i8, ptr %0, i64 56
  br label %48

41:                                               ; preds = %28, %41
  %42 = phi i64 [ %30, %28 ], [ %46, %41 ]
  %indvars.iv = phi i64 [ 2, %28 ], [ %indvars.iv.next, %41 ]
  %43 = add nsw i64 %indvars.iv, -1
  %44 = getelementptr inbounds nuw [4 x i64], ptr %22, i64 0, i64 %43
  %45 = load i64, ptr %44, align 8, !tbaa !53
  %46 = mul i64 %45, %42
  %47 = getelementptr inbounds nuw [4 x i64], ptr %29, i64 0, i64 %indvars.iv
  store i64 %46, ptr %47, align 8, !tbaa !53
  %indvars.iv.next = add nuw nsw i64 %indvars.iv, 1
  %exitcond.not = icmp eq i64 %indvars.iv.next, 4
  br i1 %exitcond.not, label %32, label %41, !llvm.loop !190

._crit_edge:                                      ; preds = %48, %32
  ret void

48:                                               ; preds = %.lr.ph, %48
  %49 = phi ptr [ %34, %.lr.ph ], [ %60, %48 ]
  %.045 = phi i64 [ %.043, %.lr.ph ], [ %.0, %48 ]
  %.0.in44 = phi i64 [ %.09.i, %.lr.ph ], [ %.045, %48 ]
  %50 = getelementptr inbounds nuw %struct.gguf_tensor_info, ptr %49, i64 %.0.in44
  %51 = getelementptr inbounds nuw i8, ptr %50, i64 336
  %52 = load i64, ptr %51, align 8, !tbaa !84
  %53 = tail call i64 @ggml_nbytes(ptr noundef nonnull %50)
  %54 = load i64, ptr %40, align 8, !tbaa !40
  %55 = add i64 %53, -1
  %56 = add i64 %55, %54
  %57 = sub i64 0, %54
  %58 = and i64 %56, %57
  %59 = add i64 %58, %52
  %60 = load ptr, ptr %4, align 8, !tbaa !46
  %61 = getelementptr inbounds nuw %struct.gguf_tensor_info, ptr %60, i64 %.045, i32 1
  store i64 %59, ptr %61, align 8, !tbaa !84
  %.0 = add nuw nsw i64 %.045, 1
  %exitcond48.not = icmp eq i64 %.0, %38
  br i1 %exitcond48.not, label %._crit_edge, label %48, !llvm.loop !191
}